target datalayout = "e-m:e-p270:32:32-p271:32:32-p272:64:64-i64:64-i128:128-f80:128-n8:16:32:64-S128"
target triple = "x86_64-pc-linux-gnu"

%"struct.std::_Rb_tree_header" = type { %"struct.std::_Rb_tree_node_base", i64 }
%"struct.std::_Rb_tree_node_base" = type { i32, ptr, ptr, ptr }
%"class.std::__cxx11::basic_string" = type { %"struct.std::__cxx11::basic_string<char>::_Alloc_hider", i64, %union.anon }
%"struct.std::__cxx11::basic_string<char>::_Alloc_hider" = type { ptr }
%union.anon = type { i64, [8 x i8] }
%"class.cvc5::internal::SolverEngine" = type { ptr, %"class.std::unique_ptr", %"class.std::unique_ptr.2", %"class.std::unique_ptr.10", %"class.std::unique_ptr.18", %"class.std::unique_ptr.26", %"class.std::unique_ptr.34", %"class.std::unique_ptr.42", %"class.std::unique_ptr.50", %"class.std::unique_ptr.58", %"class.std::unique_ptr.66", %"class.std::unique_ptr.74", %"class.std::unique_ptr.82", %"class.std::unique_ptr.90", %"class.std::unique_ptr.98", %"class.cvc5::internal::LogicInfo", i8, i8, %"class.std::__cxx11::basic_string", %"class.std::__cxx11::basic_string", i8, i8, %"class.std::unique_ptr.109" }
%"class.std::unique_ptr" = type { %"struct.std::__uniq_ptr_data" }
%"struct.std::__uniq_ptr_data" = type { %"class.std::__uniq_ptr_impl" }
%"class.std::__uniq_ptr_impl" = type { %"class.std::tuple" }
%"class.std::tuple" = type { %"struct.std::_Tuple_impl" }
%"struct.std::_Tuple_impl" = type { %"struct.std::_Head_base.1" }
%"struct.std::_Head_base.1" = type { ptr }
%"class.std::unique_ptr.2" = type { %"struct.std::__uniq_ptr_data.3" }
%"struct.std::__uniq_ptr_data.3" = type { %"class.std::__uniq_ptr_impl.4" }
%"class.std::__uniq_ptr_impl.4" = type { %"class.std::tuple.5" }
%"class.std::tuple.5" = type { %"struct.std::_Tuple_impl.6" }
%"struct.std::_Tuple_impl.6" = type { %"struct.std::_Head_base.9" }
%"struct.std::_Head_base.9" = type { ptr }
%"class.std::unique_ptr.10" = type { %"struct.std::__uniq_ptr_data.11" }
%"struct.std::__uniq_ptr_data.11" = type { %"class.std::__uniq_ptr_impl.12" }
%"class.std::__uniq_ptr_impl.12" = type { %"class.std::tuple.13" }
%"class.std::tuple.13" = type { %"struct.std::_Tuple_impl.14" }
%"struct.std::_Tuple_impl.14" = type { %"struct.std::_Head_base.17" }
%"struct.std::_Head_base.17" = type { ptr }
%"class.std::unique_ptr.18" = type { %"struct.std::__uniq_ptr_data.19" }
%"struct.std::__uniq_ptr_data.19" = type { %"class.std::__uniq_ptr_impl.20" }
%"class.std::__uniq_ptr_impl.20" = type { %"class.std::tuple.21" }
%"class.std::tuple.21" = type { %"struct.std::_Tuple_impl.22" }
%"struct.std::_Tuple_impl.22" = type { %"struct.std::_Head_base.25" }
%"struct.std::_Head_base.25" = type { ptr }
%"class.std::unique_ptr.26" = type { %"struct.std::__uniq_ptr_data.27" }
%"struct.std::__uniq_ptr_data.27" = type { %"class.std::__uniq_ptr_impl.28" }
%"class.std::__uniq_ptr_impl.28" = type { %"class.std::tuple.29" }
%"class.std::tuple.29" = type { %"struct.std::_Tuple_impl.30" }
%"struct.std::_Tuple_impl.30" = type { %"struct.std::_Head_base.33" }
%"struct.std::_Head_base.33" = type { ptr }
%"class.std::unique_ptr.34" = type { %"struct.std::__uniq_ptr_data.35" }
%"struct.std::__uniq_ptr_data.35" = type { %"class.std::__uniq_ptr_impl.36" }
%"class.std::__uniq_ptr_impl.36" = type { %"class.std::tuple.37" }
%"class.std::tuple.37" = type { %"struct.std::_Tuple_impl.38" }
%"struct.std::_Tuple_impl.38" = type { %"struct.std::_Head_base.41" }
%"struct.std::_Head_base.41" = type { ptr }
%"class.std::unique_ptr.42" = type { %"struct.std::__uniq_ptr_data.43" }
%"struct.std::__uniq_ptr_data.43" = type { %"class.std::__uniq_ptr_impl.44" }
%"class.std::__uniq_ptr_impl.44" = type { %"class.std::tuple.45" }
%"class.std::tuple.45" = type { %"struct.std::_Tuple_impl.46" }
%"struct.std::_Tuple_impl.46" = type { %"struct.std::_Head_base.49" }
%"struct.std::_Head_base.49" = type { ptr }
%"class.std::unique_ptr.50" = type { %"struct.std::__uniq_ptr_data.51" }
%"struct.std::__uniq_ptr_data.51" = type { %"class.std::__uniq_ptr_impl.52" }
%"class.std::__uniq_ptr_impl.52" = type { %"class.std::tuple.53" }
%"class.std::tuple.53" = type { %"struct.std::_Tuple_impl.54" }
%"struct.std::_Tuple_impl.54" = type { %"struct.std::_Head_base.57" }
%"struct.std::_Head_base.57" = type { ptr }
%"class.std::unique_ptr.58" = type { %"struct.std::__uniq_ptr_data.59" }
%"struct.std::__uniq_ptr_data.59" = type { %"class.std::__uniq_ptr_impl.60" }
%"class.std::__uniq_ptr_impl.60" = type { %"class.std::tuple.61" }
%"class.std::tuple.61" = type { %"struct.std::_Tuple_impl.62" }
%"struct.std::_Tuple_impl.62" = type { %"struct.std::_Head_base.65" }
%"struct.std::_Head_base.65" = type { ptr }
%"class.std::unique_ptr.66" = type { %"struct.std::__uniq_ptr_data.67" }
%"struct.std::__uniq_ptr_data.67" = type { %"class.std::__uniq_ptr_impl.68" }
%"class.std::__uniq_ptr_impl.68" = type { %"class.std::tuple.69" }
%"class.std::tuple.69" = type { %"struct.std::_Tuple_impl.70" }
%"struct.std::_Tuple_impl.70" = type { %"struct.std::_Head_base.73" }
%"struct.std::_Head_base.73" = type { ptr }
%"class.std::unique_ptr.74" = type { %"struct.std::__uniq_ptr_data.75" }
%"struct.std::__uniq_ptr_data.75" = type { %"class.std::__uniq_ptr_impl.76" }
%"class.std::__uniq_ptr_impl.76" = type { %"class.std::tuple.77" }
%"class.std::tuple.77" = type { %"struct.std::_Tuple_impl.78" }
%"struct.std::_Tuple_impl.78" = type { %"struct.std::_Head_base.81" }
%"struct.std::_Head_base.81" = type { ptr }
%"class.std::unique_ptr.82" = type { %"struct.std::__uniq_ptr_data.83" }
%"struct.std::__uniq_ptr_data.83" = type { %"class.std::__uniq_ptr_impl.84" }
%"class.std::__uniq_ptr_impl.84" = type { %"class.std::tuple.85" }
%"class.std::tuple.85" = type { %"struct.std::_Tuple_impl.86" }
%"struct.std::_Tuple_impl.86" = type { %"struct.std::_Head_base.89" }
%"struct.std::_Head_base.89" = type { ptr }
%"class.std::unique_ptr.90" = type { %"struct.std::__uniq_ptr_data.91" }
%"struct.std::__uniq_ptr_data.91" = type { %"class.std::__uniq_ptr_impl.92" }
%"class.std::__uniq_ptr_impl.92" = type { %"class.std::tuple.93" }
%"class.std::tuple.93" = type { %"struct.std::_Tuple_impl.94" }
%"struct.std::_Tuple_impl.94" = type { %"struct.std::_Head_base.97" }
%"struct.std::_Head_base.97" = type { ptr }
%"class.std::unique_ptr.98" = type { %"struct.std::__uniq_ptr_data.99" }
%"struct.std::__uniq_ptr_data.99" = type { %"class.std::__uniq_ptr_impl.100" }
%"class.std::__uniq_ptr_impl.100" = type { %"class.std::tuple.101" }
%"class.std::tuple.101" = type { %"struct.std::_Tuple_impl.102" }
%"struct.std::_Tuple_impl.102" = type { %"struct.std::_Head_base.105" }
%"struct.std::_Head_base.105" = type { ptr }
%"class.cvc5::internal::LogicInfo" = type { %"class.std::__cxx11::basic_string", %"class.std::vector", i64, i8, i8, i8, i8, i8, i8, i8, i8 }
%"class.std::vector" = type { %"struct.std::_Bvector_base" }
%"struct.std::_Bvector_base" = type { %"struct.std::_Bvector_base<std::allocator<bool>>::_Bvector_impl" }
%"struct.std::_Bvector_base<std::allocator<bool>>::_Bvector_impl" = type { %"struct.std::_Bvector_base<std::allocator<bool>>::_Bvector_impl_data" }
%"struct.std::_Bvector_base<std::allocator<bool>>::_Bvector_impl_data" = type { %"struct.std::_Bit_iterator", %"struct.std::_Bit_iterator", ptr }
%"struct.std::_Bit_iterator" = type { %"struct.std::_Bit_iterator_base.base", [4 x i8] }
%"struct.std::_Bit_iterator_base.base" = type <{ ptr, i32 }>
%"class.std::unique_ptr.109" = type { %"struct.std::__uniq_ptr_data.110" }
%"struct.std::__uniq_ptr_data.110" = type { %"class.std::__uniq_ptr_impl.111" }
%"class.std::__uniq_ptr_impl.111" = type { %"class.std::tuple.112" }
%"class.std::tuple.112" = type { %"struct.std::_Tuple_impl.113" }
%"struct.std::_Tuple_impl.113" = type { %"struct.std::_Head_base.116" }
%"struct.std::_Head_base.116" = type { ptr }
%"class.std::map.966" = type { %"class.std::_Rb_tree.967" }
%"class.std::_Rb_tree.967" = type { %"struct.std::_Rb_tree<cvc5::internal::NodeTemplate<true>, std::pair<const cvc5::internal::NodeTemplate<true>, cvc5::internal::NodeTemplate<true>>, std::_Select1st<std::pair<const cvc5::internal::NodeTemplate<true>, cvc5::internal::NodeTemplate<true>>>, std::less<cvc5::internal::NodeTemplate<true>>>::_Rb_tree_impl" }
%"struct.std::_Rb_tree<cvc5::internal::NodeTemplate<true>, std::pair<const cvc5::internal::NodeTemplate<true>, cvc5::internal::NodeTemplate<true>>, std::_Select1st<std::pair<const cvc5::internal::NodeTemplate<true>, cvc5::internal::NodeTemplate<true>>>, std::less<cvc5::internal::NodeTemplate<true>>>::_Rb_tree_impl" = type { [8 x i8], %"struct.std::_Rb_tree_header" }

@.str.147 = private unnamed_addr constant [44 x i8] c"Cannot get synth solutions in this context.\00", align 1

; Function Attrs: mustprogress nounwind uwtable
define linkonce_odr hidden noundef nonnull align 8 dereferenceable(8) ptr @_ZNSt10_Head_baseILm0EPN4cvc58internal3smt11SygusSolverELb0EE7_M_headERKS5_(ptr noundef nonnull align 8 dereferenceable(8) %0) #4 comdat align 2 {
  %2 = alloca ptr, align 8
  store ptr %0, ptr %2, align 8, !tbaa !1023
  %3 = load ptr, ptr %2, align 8, !tbaa !1023
  %4 = getelementptr inbounds nuw %"struct.std::_Head_base.73", ptr %3, i32 0, i32 0
  ret ptr %4
}

; Function Attrs: mustprogress nounwind uwtable
define linkonce_odr hidden noundef nonnull align 8 dereferenceable(8) ptr @_ZNSt11_Tuple_implILm0EJPN4cvc58internal3smt11SygusSolverESt14default_deleteIS3_EEE7_M_headERKS7_(ptr noundef nonnull align 8 dereferenceable(8) %0) #4 comdat align 2 {
  %2 = alloca ptr, align 8
  store ptr %0, ptr %2, align 8, !tbaa !1019
  %3 = load ptr, ptr %2, align 8, !tbaa !1019
  %4 = call noundef nonnull align 8 dereferenceable(8) ptr @_ZNSt10_Head_baseILm0EPN4cvc58internal3smt11SygusSolverELb0EE7_M_headERKS5_(ptr noundef nonnull align 8 dereferenceable(8) %3) #3
  ret ptr %4
}

; Function Attrs: mustprogress nounwind uwtable
define linkonce_odr hidden noundef nonnull align 8 dereferenceable(8) ptr @_ZSt12__get_helperILm0EPN4cvc58internal3smt11SygusSolverEJSt14default_deleteIS3_EEERKT0_RKSt11_Tuple_implIXT_EJS7_DpT1_EE(ptr noundef nonnull align 8 dereferenceable(8) %0) #4 comdat {
  %2 = alloca ptr, align 8
  store ptr %0, ptr %2, align 8, !tbaa !1019
  %3 = load ptr, ptr %2, align 8, !tbaa !1019
  %4 = call noundef nonnull align 8 dereferenceable(8) ptr @_ZNSt11_Tuple_implILm0EJPN4cvc58internal3smt11SygusSolverESt14default_deleteIS3_EEE7_M_headERKS7_(ptr noundef nonnull align 8 dereferenceable(8) %3) #3
  ret ptr %4
}

; Function Attrs: mustprogress nounwind uwtable
define linkonce_odr hidden noundef nonnull align 8 dereferenceable(8) ptr @_ZSt3getILm0EJPN4cvc58internal3smt11SygusSolverESt14default_deleteIS3_EEERKNSt13tuple_elementIXT_ESt5tupleIJDpT0_EEE4typeERKSB_(ptr noundef nonnull align 8 dereferenceable(8) %0) #4 comdat {
  %2 = alloca ptr, align 8
  store ptr %0, ptr %2, align 8, !tbaa !1017
  %3 = load ptr, ptr %2, align 8, !tbaa !1017
  %4 = call noundef nonnull align 8 dereferenceable(8) ptr @_ZSt12__get_helperILm0EPN4cvc58internal3smt11SygusSolverEJSt14default_deleteIS3_EEERKT0_RKSt11_Tuple_implIXT_EJS7_DpT1_EE(ptr noundef nonnull align 8 dereferenceable(8) %3) #3
  ret ptr %4
}

; Function Attrs: mustprogress nounwind uwtable
define linkonce_odr hidden noundef ptr @_ZNKSt15__uniq_ptr_implIN4cvc58internal3smt11SygusSolverESt14default_deleteIS3_EE6_M_ptrEv(ptr noundef nonnull align 8 dereferenceable(8) %0) #4 comdat align 2 {
  %2 = alloca ptr, align 8
  store ptr %0, ptr %2, align 8, !tbaa !1015
  %3 = load ptr, ptr %2, align 8
  %4 = getelementptr inbounds nuw %"class.std::__uniq_ptr_impl.68", ptr %3, i32 0, i32 0
  %5 = call noundef nonnull align 8 dereferenceable(8) ptr @_ZSt3getILm0EJPN4cvc58internal3smt11SygusSolverESt14default_deleteIS3_EEERKNSt13tuple_elementIXT_ESt5tupleIJDpT0_EEE4typeERKSB_(ptr noundef nonnull align 8 dereferenceable(8) %4) #3
  %6 = load ptr, ptr %5, align 8, !tbaa !187
  ret ptr %6
}

; Function Attrs: mustprogress nounwind uwtable
define linkonce_odr hidden noundef zeroext i1 @_ZNKSt8_Rb_treeIN4cvc58internal12NodeTemplateILb1EEESt4pairIKS3_S3_ESt10_Select1stIS6_ESt4lessIS3_ESaIS6_EE5emptyEv(ptr noundef nonnull align 8 dereferenceable(48) %0) #4 comdat align 2 {
  %2 = alloca ptr, align 8
  store ptr %0, ptr %2, align 8, !tbaa !1358
  %3 = load ptr, ptr %2, align 8
  %4 = getelementptr inbounds nuw %"class.std::_Rb_tree.967", ptr %3, i32 0, i32 0
  %5 = getelementptr inbounds i8, ptr %4, i64 8
  %6 = getelementptr inbounds nuw %"struct.std::_Rb_tree_header", ptr %5, i32 0, i32 1
  %7 = load i64, ptr %6, align 8, !tbaa !1266
  %8 = icmp eq i64 %7, 0
  ret i1 %8
}

; Function Attrs: mustprogress nounwind uwtable
define linkonce_odr hidden noundef ptr @_ZNKSt10unique_ptrIN4cvc58internal3smt11SygusSolverESt14default_deleteIS3_EE3getEv(ptr noundef nonnull align 8 dereferenceable(8) %0) #4 comdat align 2 {
  %2 = alloca ptr, align 8
  store ptr %0, ptr %2, align 8, !tbaa !167
  %3 = load ptr, ptr %2, align 8
  %4 = getelementptr inbounds nuw %"class.std::unique_ptr.66", ptr %3, i32 0, i32 0
  %5 = call noundef ptr @_ZNKSt15__uniq_ptr_implIN4cvc58internal3smt11SygusSolverESt14default_deleteIS3_EE6_M_ptrEv(ptr noundef nonnull align 8 dereferenceable(8) %4) #3
  ret ptr %5
}

; Function Attrs: mustprogress nounwind uwtable
define linkonce_odr hidden noundef zeroext i1 @_ZNKSt10unique_ptrIN4cvc58internal3smt11SygusSolverESt14default_deleteIS3_EEcvbEv(ptr noundef nonnull align 8 dereferenceable(8) %0) #4 comdat align 2 {
  %2 = alloca ptr, align 8
  store ptr %0, ptr %2, align 8, !tbaa !167
  %3 = load ptr, ptr %2, align 8
  %4 = call noundef ptr @_ZNKSt10unique_ptrIN4cvc58internal3smt11SygusSolverESt14default_deleteIS3_EE3getEv(ptr noundef nonnull align 8 dereferenceable(8) %3) #3
  %5 = icmp eq ptr %4, null
  %6 = select i1 %5, i1 false, i1 true
  ret i1 %6
}

; Function Attrs: mustprogress nounwind uwtable
define linkonce_odr hidden noundef zeroext i1 @_ZNKSt3mapIN4cvc58internal12NodeTemplateILb1EEES3_St4lessIS3_ESaISt4pairIKS3_S3_EEE5emptyEv(ptr noundef nonnull align 8 dereferenceable(48) %0) #4 comdat align 2 {
  %2 = alloca ptr, align 8
  store ptr %0, ptr %2, align 8, !tbaa !905
  %3 = load ptr, ptr %2, align 8
  %4 = getelementptr inbounds nuw %"class.std::map.966", ptr %3, i32 0, i32 0
  %5 = call noundef zeroext i1 @_ZNKSt8_Rb_treeIN4cvc58internal12NodeTemplateILb1EEESt4pairIKS3_S3_ESt10_Select1stIS6_ESt4lessIS3_ESaIS6_EE5emptyEv(ptr noundef nonnull align 8 dereferenceable(48) %4) #3
  ret i1 %5
}

; Function Attrs: mustprogress nounwind uwtable
define linkonce_odr hidden noundef ptr @_ZNKSt10unique_ptrIN4cvc58internal3smt11SygusSolverESt14default_deleteIS3_EEptEv(ptr noundef nonnull align 8 dereferenceable(8) %0) #4 comdat align 2 {
  %2 = alloca ptr, align 8
  store ptr %0, ptr %2, align 8, !tbaa !167
  %3 = load ptr, ptr %2, align 8
  %4 = call noundef ptr @_ZNKSt10unique_ptrIN4cvc58internal3smt11SygusSolverESt14default_deleteIS3_EE3getEv(ptr noundef nonnull align 8 dereferenceable(8) %3) #3
  ret ptr %4
}

; Function Attrs: inlinehint mustprogress nounwind uwtable
define linkonce_odr hidden noundef zeroext i1 @_ZSteqIN4cvc58internal3smt11SygusSolverESt14default_deleteIS3_EEbRKSt10unique_ptrIT_T0_EDn(ptr noundef nonnull align 8 dereferenceable(8) %0, ptr %1) #9 comdat {
  %3 = alloca ptr, align 8
  %4 = alloca ptr, align 8
  store ptr %0, ptr %3, align 8, !tbaa !167
  store ptr %1, ptr %4, align 8, !tbaa !152
  %5 = load ptr, ptr %3, align 8, !tbaa !167
  %6 = call noundef zeroext i1 @_ZNKSt10unique_ptrIN4cvc58internal3smt11SygusSolverESt14default_deleteIS3_EEcvbEv(ptr noundef nonnull align 8 dereferenceable(8) %5) #3
  %7 = xor i1 %6, true
  ret i1 %7
}

; Function Attrs: mustprogress uwtable
define noundef zeroext i1 @_ZN4cvc58internal12SolverEngine17getSynthSolutionsERSt3mapINS0_12NodeTemplateILb1EEES4_St4lessIS4_ESaISt4pairIKS4_S4_EEE(ptr noundef nonnull align 8 dereferenceable(296) %0, ptr noundef nonnull align 8 dereferenceable(48) %1) #6 align 2 personality ptr @__gxx_personality_v0 {
  %3 = alloca ptr, align 8
  %4 = alloca ptr, align 8
  %5 = alloca ptr, align 8
  %6 = alloca i32, align 4
  %7 = alloca i8, align 1
  store ptr %0, ptr %3, align 8, !tbaa !16
  store ptr %1, ptr %4, align 8, !tbaa !905
  %8 = load ptr, ptr %3, align 8
  %9 = getelementptr inbounds nuw %"class.cvc5::internal::SolverEngine", ptr %8, i32 0, i32 10
  %10 = call noundef zeroext i1 @_ZSteqIN4cvc58internal3smt11SygusSolverESt14default_deleteIS3_EEbRKSt10unique_ptrIT_T0_EDn(ptr noundef nonnull align 8 dereferenceable(8) %9, ptr null) #3
  br i1 %10, label %11, label %18

11:                                               ; preds = %2
  %12 = call ptr @__cxa_allocate_exception(i64 40) #3
  invoke void @_ZN4cvc58internal25RecoverableModalExceptionC2EPKc(ptr noundef nonnull align 8 dereferenceable(40) %12, ptr noundef @.str.147)
          to label %13 unwind label %14

13:                                               ; preds = %11
  call void @__cxa_throw(ptr %12, ptr @_ZTIN4cvc58internal25RecoverableModalExceptionE, ptr @_ZN4cvc58internal9ExceptionD2Ev) #27
  unreachable

14:                                               ; preds = %11
  %15 = landingpad { ptr, i32 }
          cleanup
  %16 = extractvalue { ptr, i32 } %15, 0
  store ptr %16, ptr %5, align 8
  %17 = extractvalue { ptr, i32 } %15, 1
  store i32 %17, ptr %6, align 4
  call void @__cxa_free_exception(ptr %12) #3
  br label %32

18:                                               ; preds = %2
  call void @llvm.lifetime.start.p0(i64 1, ptr %7) #3
  %19 = getelementptr inbounds nuw %"class.cvc5::internal::SolverEngine", ptr %8, i32 0, i32 10
  %20 = call noundef ptr @_ZNKSt10unique_ptrIN4cvc58internal3smt11SygusSolverESt14default_deleteIS3_EEptEv(ptr noundef nonnull align 8 dereferenceable(8) %19) #3
  %21 = load ptr, ptr %4, align 8, !tbaa !905
  %22 = call noundef zeroext i1 @_ZN4cvc58internal3smt11SygusSolver17getSynthSolutionsERSt3mapINS0_12NodeTemplateILb1EEES5_St4lessIS5_ESaISt4pairIKS5_S5_EEE(ptr noundef nonnull align 8 dereferenceable(480) %20, ptr noundef nonnull align 8 dereferenceable(48) %21)
  %23 = zext i1 %22 to i8
  store i8 %23, ptr %7, align 1, !tbaa !10
  %24 = load i8, ptr %7, align 1, !tbaa !10, !range !12, !noundef !13
  %25 = trunc i8 %24 to i1
  br i1 %25, label %26, label %30

26:                                               ; preds = %18
  %27 = load ptr, ptr %4, align 8, !tbaa !905
  %28 = call noundef zeroext i1 @_ZNKSt3mapIN4cvc58internal12NodeTemplateILb1EEES3_St4lessIS3_ESaISt4pairIKS3_S3_EEE5emptyEv(ptr noundef nonnull align 8 dereferenceable(48) %27) #3
  %29 = xor i1 %28, true
  br label %30

30:                                               ; preds = %26, %18
  %31 = phi i1 [ false, %18 ], [ %29, %26 ]
  call void @llvm.lifetime.end.p0(i64 1, ptr %7) #3
  ret i1 %31

32:                                               ; preds = %14
  %33 = load ptr, ptr %5, align 8
  %34 = load i32, ptr %6, align 4
  %35 = insertvalue { ptr, i32 } poison, ptr %33, 0
  %36 = insertvalue { ptr, i32 } %35, i32 %34, 1
  resume { ptr, i32 } %36
}