; Function Attrs: mustprogress uwtable
define noundef zeroext i1 @_ZN4cvc58internal12SolverEngine17getSynthSolutionsERSt3mapINS0_12NodeTemplateILb1EEES4_St4lessIS4_ESaISt4pairIKS4_S4_EEE(ptr noundef nonnull readonly align 8 captures(none) dereferenceable(296) %0, ptr noundef nonnull align 8 dereferenceable(48) %1) local_unnamed_addr #4 align 2 personality ptr @__gxx_personality_v0 {
  %3 = getelementptr inbounds nuw i8, ptr %0, i64 80
  %4 = load ptr, ptr %3, align 8, !tbaa !147
  %.not.i = icmp eq ptr %4, null
  br i1 %.not.i, label %5, label %10

5:                                                ; preds = %2
  %6 = tail call ptr @__cxa_allocate_exception(i64 40) #32
  invoke void @_ZN4cvc58internal25RecoverableModalExceptionC2EPKc(ptr noundef nonnull align 8 dereferenceable(40) %6, ptr noundef nonnull @.str.147)
          to label %7 unwind label %8

7:                                                ; preds = %5
  tail call void @__cxa_throw(ptr nonnull %6, ptr nonnull @_ZTIN4cvc58internal25RecoverableModalExceptionE, ptr nonnull @_ZN4cvc58internal9ExceptionD2Ev) #34
  unreachable

8:                                                ; preds = %5
  %9 = landingpad { ptr, i32 }
          cleanup
  tail call void @__cxa_free_exception(ptr nonnull %6) #32
  resume { ptr, i32 } %9

10:                                               ; preds = %2
  %11 = tail call noundef zeroext i1 @_ZN4cvc58internal3smt11SygusSolver17getSynthSolutionsERSt3mapINS0_12NodeTemplateILb1EEES5_St4lessIS5_ESaISt4pairIKS5_S5_EEE(ptr noundef nonnull align 8 dereferenceable(480) %4, ptr noundef nonnull align 8 dereferenceable(48) %1)
  %12 = getelementptr inbounds nuw i8, ptr %1, i64 40
  %13 = load i64, ptr %12, align 8
  %14 = icmp ne i64 %13, 0
  %15 = select i1 %11, i1 %14, i1 false
  ret i1 %15
}